; Function Attrs: mustprogress uwtable
define hidden void @_ZN4cvc58internal6theory11quantifiers8TermUtil8mkNegateENS0_4kind6Kind_tENS0_12NodeTemplateILb1EEE(ptr dead_on_unwind noalias writable sret(%"class.cvc5::internal::NodeTemplate") align 8 %0, i32 noundef %1, ptr noundef readonly captures(none) %2) local_unnamed_addr #3 align 2 personality ptr @__gxx_personality_v0 {
  %4 = alloca %"class.cvc5::internal::NodeBuilder", align 8
  %5 = alloca %"class.cvc5::internal::NodeTemplate.101", align 8
  %6 = load ptr, ptr %2, align 8, !tbaa !6
  %7 = getelementptr inbounds nuw i8, ptr %6, i64 8
  %8 = load i64, ptr %7, align 8
  %9 = trunc i64 %8 to i32
  %10 = and i32 %9, 1023
  %11 = icmp eq i32 %10, %1
  br i1 %11, label %12, label %.noexc

12:                                               ; preds = %3
  tail call void @llvm.experimental.noalias.scope.decl(metadata !241)
  %13 = icmp eq i32 %1, 1023
  %14 = select i1 %13, i32 -1, i32 %1
  %15 = tail call noundef i32 @_ZN4cvc58internal4kind10metaKindOfENS1_6Kind_tE(i32 noundef %14), !noalias !241
  %16 = icmp eq i32 %15, 2
  %17 = getelementptr inbounds nuw i8, ptr %6, i64 24
  %18 = zext i1 %16 to i64
  %19 = getelementptr inbounds nuw [0 x ptr], ptr %17, i64 0, i64 %18
  %20 = load ptr, ptr %19, align 8, !tbaa !12, !noalias !241
  store ptr %20, ptr %0, align 8, !tbaa !6, !alias.scope !241
  %21 = load i64, ptr %20, align 8, !noalias !241
  %22 = lshr i64 %21, 40
  %23 = trunc nuw nsw i64 %22 to i32
  %24 = and i32 %23, 1048575
  %25 = icmp samesign ult i32 %24, 1048574
  br i1 %25, label %26, label %31, !prof !13

26:                                               ; preds = %12
  %27 = add i64 %21, 1099511627776
  %28 = and i64 %27, 1152920405095219200
  %29 = and i64 %21, -1152920405095219201
  %30 = or disjoint i64 %28, %29
  store i64 %30, ptr %20, align 8, !noalias !241
  br label %_ZNK4cvc58internal12NodeTemplateILb1EEixEi.exit

31:                                               ; preds = %12
  %32 = icmp eq i32 %24, 1048574
  br i1 %32, label %33, label %_ZNK4cvc58internal12NodeTemplateILb1EEixEi.exit, !prof !14

33:                                               ; preds = %31
  %34 = or i64 %21, 1152920405095219200
  store i64 %34, ptr %20, align 8, !noalias !241
  tail call void @_ZN4cvc58internal4expr9NodeValue20markRefCountMaxedOutEv(ptr noundef nonnull align 8 dereferenceable(24) %20), !noalias !241
  br label %_ZNK4cvc58internal12NodeTemplateILb1EEixEi.exit

.noexc:                                           ; preds = %3
  call void @llvm.lifetime.start.p0(i64 8, ptr nonnull %5)
  call void @llvm.lifetime.start.p0(i64 128, ptr nonnull %4) #24, !noalias !244
  %35 = getelementptr inbounds nuw i8, ptr %6, i64 16
  %36 = load ptr, ptr %35, align 8, !tbaa !53, !noalias !244
  call void @_ZN4cvc58internal11NodeBuilderC1EPNS0_11NodeManagerENS0_4kind6Kind_tE(ptr noundef nonnull align 8 dereferenceable(124) %4, ptr noundef %36, i32 noundef %1)
  store ptr %6, ptr %5, align 8, !tbaa !48, !noalias !244
  %37 = invoke noundef nonnull align 8 dereferenceable(124) ptr @_ZN4cvc58internal11NodeBuilderlsENS0_12NodeTemplateILb0EEE(ptr noundef nonnull align 8 dereferenceable(124) %4, ptr noundef nonnull %5)
          to label %38 unwind label %41, !noalias !244

38:                                               ; preds = %.noexc
  invoke void @_ZN4cvc58internal11NodeBuilder13constructNodeEv(ptr dead_on_unwind writable sret(%"class.cvc5::internal::NodeTemplate") align 8 %0, ptr noundef nonnull align 8 dereferenceable(124) %4)
          to label %43 unwind label %39

39:                                               ; preds = %38
  %40 = landingpad { ptr, i32 }
          cleanup
  br label %.body

41:                                               ; preds = %.noexc
  %42 = landingpad { ptr, i32 }
          cleanup
  br label %.body

.body:                                            ; preds = %41, %39
  %.pn.i = phi { ptr, i32 } [ %40, %39 ], [ %42, %41 ]
  call void @_ZN4cvc58internal11NodeBuilderD1Ev(ptr noundef nonnull align 8 dereferenceable(124) %4) #24
  call void @llvm.lifetime.end.p0(i64 128, ptr nonnull %4) #24, !noalias !244
  resume { ptr, i32 } %.pn.i

43:                                               ; preds = %38
  call void @_ZN4cvc58internal11NodeBuilderD1Ev(ptr noundef nonnull align 8 dereferenceable(124) %4) #24
  call void @llvm.lifetime.end.p0(i64 128, ptr nonnull %4) #24, !noalias !244
  call void @llvm.lifetime.end.p0(i64 8, ptr nonnull %5)
  br label %_ZNK4cvc58internal12NodeTemplateILb1EEixEi.exit

_ZNK4cvc58internal12NodeTemplateILb1EEixEi.exit:  ; preds = %33, %31, %26, %43
  ret void
}